target datalayout = "e-m:e-p270:32:32-p271:32:32-p272:64:64-i64:64-i128:128-f80:128-n8:16:32:64-S128"
target triple = "x86_64-pc-linux-gnu"

%"struct.OpenColorIO_v2_5dev::RenderParams" = type <{ [4 x float], [4 x float], [4 x float], float, i8, i8, [2 x i8] }>

; Function Attrs: mustprogress nounwind uwtable
define hidden void @_ZN19OpenColorIO_v2_5dev12RenderParams13setSaturationEf(ptr noundef nonnull align 4 dereferenceable(54) %0, float noundef %1) #5 align 2 {
  %3 = alloca ptr, align 8
  %4 = alloca float, align 4
  store ptr %0, ptr %3, align 8, !tbaa !3
  store float %1, ptr %4, align 4, !tbaa !13
  %5 = load ptr, ptr %3, align 8
  %6 = load float, ptr %4, align 4, !tbaa !13
  %7 = getelementptr inbounds nuw %"struct.OpenColorIO_v2_5dev::RenderParams", ptr %5, i32 0, i32 3
  store float %6, ptr %7, align 4, !tbaa !14
  ret void
}

; Function Attrs: mustprogress nounwind uwtable
define hidden void @_ZN19OpenColorIO_v2_5dev12RenderParams8setPowerEfff(ptr noundef nonnull align 4 dereferenceable(54) %0, float noundef %1, float noundef %2, float noundef %3) #5 align 2 {
  %5 = alloca ptr, align 8
  %6 = alloca float, align 4
  %7 = alloca float, align 4
  %8 = alloca float, align 4
  store ptr %0, ptr %5, align 8, !tbaa !3
  store float %1, ptr %6, align 4, !tbaa !13
  store float %2, ptr %7, align 4, !tbaa !13
  store float %3, ptr %8, align 4, !tbaa !13
  %9 = load ptr, ptr %5, align 8
  %10 = load float, ptr %6, align 4, !tbaa !13
  %11 = getelementptr inbounds nuw %"struct.OpenColorIO_v2_5dev::RenderParams", ptr %9, i32 0, i32 2
  %12 = getelementptr inbounds [4 x float], ptr %11, i64 0, i64 0
  store float %10, ptr %12, align 4, !tbaa !13
  %13 = load float, ptr %7, align 4, !tbaa !13
  %14 = getelementptr inbounds nuw %"struct.OpenColorIO_v2_5dev::RenderParams", ptr %9, i32 0, i32 2
  %15 = getelementptr inbounds [4 x float], ptr %14, i64 0, i64 1
  store float %13, ptr %15, align 4, !tbaa !13
  %16 = load float, ptr %8, align 4, !tbaa !13
  %17 = getelementptr inbounds nuw %"struct.OpenColorIO_v2_5dev::RenderParams", ptr %9, i32 0, i32 2
  %18 = getelementptr inbounds [4 x float], ptr %17, i64 0, i64 2
  store float %16, ptr %18, align 4, !tbaa !13
  %19 = getelementptr inbounds nuw %"struct.OpenColorIO_v2_5dev::RenderParams", ptr %9, i32 0, i32 2
  %20 = getelementptr inbounds [4 x float], ptr %19, i64 0, i64 3
  store float 1.000000e+00, ptr %20, align 4, !tbaa !13
  ret void
}

; Function Attrs: mustprogress nounwind uwtable
define hidden void @_ZN19OpenColorIO_v2_5dev12RenderParams9setOffsetEfff(ptr noundef nonnull align 4 dereferenceable(54) %0, float noundef %1, float noundef %2, float noundef %3) #5 align 2 {
  %5 = alloca ptr, align 8
  %6 = alloca float, align 4
  %7 = alloca float, align 4
  %8 = alloca float, align 4
  store ptr %0, ptr %5, align 8, !tbaa !3
  store float %1, ptr %6, align 4, !tbaa !13
  store float %2, ptr %7, align 4, !tbaa !13
  store float %3, ptr %8, align 4, !tbaa !13
  %9 = load ptr, ptr %5, align 8
  %10 = load float, ptr %6, align 4, !tbaa !13
  %11 = getelementptr inbounds nuw %"struct.OpenColorIO_v2_5dev::RenderParams", ptr %9, i32 0, i32 1
  %12 = getelementptr inbounds [4 x float], ptr %11, i64 0, i64 0
  store float %10, ptr %12, align 4, !tbaa !13
  %13 = load float, ptr %7, align 4, !tbaa !13
  %14 = getelementptr inbounds nuw %"struct.OpenColorIO_v2_5dev::RenderParams", ptr %9, i32 0, i32 1
  %15 = getelementptr inbounds [4 x float], ptr %14, i64 0, i64 1
  store float %13, ptr %15, align 4, !tbaa !13
  %16 = load float, ptr %8, align 4, !tbaa !13
  %17 = getelementptr inbounds nuw %"struct.OpenColorIO_v2_5dev::RenderParams", ptr %9, i32 0, i32 1
  %18 = getelementptr inbounds [4 x float], ptr %17, i64 0, i64 2
  store float %16, ptr %18, align 4, !tbaa !13
  %19 = getelementptr inbounds nuw %"struct.OpenColorIO_v2_5dev::RenderParams", ptr %9, i32 0, i32 1
  %20 = getelementptr inbounds [4 x float], ptr %19, i64 0, i64 3
  store float 0.000000e+00, ptr %20, align 4, !tbaa !13
  ret void
}

; Function Attrs: mustprogress nounwind uwtable
define hidden void @_ZN19OpenColorIO_v2_5dev12RenderParams8setSlopeEfff(ptr noundef nonnull align 4 dereferenceable(54) %0, float noundef %1, float noundef %2, float noundef %3) #5 align 2 {
  %5 = alloca ptr, align 8
  %6 = alloca float, align 4
  %7 = alloca float, align 4
  %8 = alloca float, align 4
  store ptr %0, ptr %5, align 8, !tbaa !3
  store float %1, ptr %6, align 4, !tbaa !13
  store float %2, ptr %7, align 4, !tbaa !13
  store float %3, ptr %8, align 4, !tbaa !13
  %9 = load ptr, ptr %5, align 8
  %10 = load float, ptr %6, align 4, !tbaa !13
  %11 = getelementptr inbounds nuw %"struct.OpenColorIO_v2_5dev::RenderParams", ptr %9, i32 0, i32 0
  %12 = getelementptr inbounds [4 x float], ptr %11, i64 0, i64 0
  store float %10, ptr %12, align 4, !tbaa !13
  %13 = load float, ptr %7, align 4, !tbaa !13
  %14 = getelementptr inbounds nuw %"struct.OpenColorIO_v2_5dev::RenderParams", ptr %9, i32 0, i32 0
  %15 = getelementptr inbounds [4 x float], ptr %14, i64 0, i64 1
  store float %13, ptr %15, align 4, !tbaa !13
  %16 = load float, ptr %8, align 4, !tbaa !13
  %17 = getelementptr inbounds nuw %"struct.OpenColorIO_v2_5dev::RenderParams", ptr %9, i32 0, i32 0
  %18 = getelementptr inbounds [4 x float], ptr %17, i64 0, i64 2
  store float %16, ptr %18, align 4, !tbaa !13
  %19 = getelementptr inbounds nuw %"struct.OpenColorIO_v2_5dev::RenderParams", ptr %9, i32 0, i32 0
  %20 = getelementptr inbounds [4 x float], ptr %19, i64 0, i64 3
  store float 1.000000e+00, ptr %20, align 4, !tbaa !13
  ret void
}

; Function Attrs: mustprogress uwtable
define hidden void @_ZN19OpenColorIO_v2_5dev12RenderParamsC2Ev(ptr noundef nonnull align 4 dereferenceable(54) %0) unnamed_addr #4 align 2 {
  %2 = alloca ptr, align 8
  store ptr %0, ptr %2, align 8, !tbaa !3
  %3 = load ptr, ptr %2, align 8
  %4 = getelementptr inbounds nuw %"struct.OpenColorIO_v2_5dev::RenderParams", ptr %3, i32 0, i32 4
  store i8 0, ptr %4, align 4, !tbaa !8
  %5 = getelementptr inbounds nuw %"struct.OpenColorIO_v2_5dev::RenderParams", ptr %3, i32 0, i32 5
  store i8 0, ptr %5, align 1, !tbaa !12
  call void @_ZN19OpenColorIO_v2_5dev12RenderParams8setSlopeEfff(ptr noundef nonnull align 4 dereferenceable(54) %3, float noundef 1.000000e+00, float noundef 1.000000e+00, float noundef 1.000000e+00)
  call void @_ZN19OpenColorIO_v2_5dev12RenderParams9setOffsetEfff(ptr noundef nonnull align 4 dereferenceable(54) %3, float noundef 0.000000e+00, float noundef 0.000000e+00, float noundef 0.000000e+00)
  call void @_ZN19OpenColorIO_v2_5dev12RenderParams8setPowerEfff(ptr noundef nonnull align 4 dereferenceable(54) %3, float noundef 1.000000e+00, float noundef 1.000000e+00, float noundef 1.000000e+00)
  call void @_ZN19OpenColorIO_v2_5dev12RenderParams13setSaturationEf(ptr noundef nonnull align 4 dereferenceable(54) %3, float noundef 1.000000e+00)
  ret void
}