; Function Attrs: mustprogress nofree norecurse nosync nounwind willreturn memory(argmem: write) uwtable
define hidden void @_ZN19OpenColorIO_v2_5dev12RenderParamsC2Ev(ptr noundef nonnull writeonly align 4 captures(none) dereferenceable(54) initializes((0, 54)) %0) unnamed_addr #3 align 2 {
  %2 = getelementptr inbounds nuw i8, ptr %0, i64 52
  store i8 0, ptr %2, align 4, !tbaa !3
  %3 = getelementptr inbounds nuw i8, ptr %0, i64 53
  store i8 0, ptr %3, align 1, !tbaa !9
  store float 1.000000e+00, ptr %0, align 4, !tbaa !10
  %4 = getelementptr inbounds nuw i8, ptr %0, i64 4
  store float 1.000000e+00, ptr %4, align 4, !tbaa !10
  %5 = getelementptr inbounds nuw i8, ptr %0, i64 8
  store float 1.000000e+00, ptr %5, align 4, !tbaa !10
  %6 = getelementptr inbounds nuw i8, ptr %0, i64 12
  store float 1.000000e+00, ptr %6, align 4, !tbaa !10
  %7 = getelementptr inbounds nuw i8, ptr %0, i64 16
  %8 = getelementptr inbounds nuw i8, ptr %0, i64 32
  tail call void @llvm.memset.p0.i64(ptr noundef nonnull align 4 dereferenceable(16) %7, i8 0, i64 16, i1 false)
  store float 1.000000e+00, ptr %8, align 4, !tbaa !10
  %9 = getelementptr inbounds nuw i8, ptr %0, i64 36
  store float 1.000000e+00, ptr %9, align 4, !tbaa !10
  %10 = getelementptr inbounds nuw i8, ptr %0, i64 40
  store float 1.000000e+00, ptr %10, align 4, !tbaa !10
  %11 = getelementptr inbounds nuw i8, ptr %0, i64 44
  store float 1.000000e+00, ptr %11, align 4, !tbaa !10
  %12 = getelementptr inbounds nuw i8, ptr %0, i64 48
  store float 1.000000e+00, ptr %12, align 4, !tbaa !11
  ret void
}